target datalayout = "e-m:e-p270:32:32-p271:32:32-p272:64:64-i64:64-i128:128-f80:128-n8:16:32:64-S128"
target triple = "x86_64-pc-linux-gnu"

%struct._lv_spinbox_t = type { %struct._lv_textarea_t, i32, i32, i32, i32, i16 }
%struct._lv_textarea_t = type { %struct._lv_obj_t, ptr, ptr, ptr, ptr, ptr, i32, i32, %struct.anon, i32, i32, i8 }
%struct._lv_obj_t = type { ptr, ptr, ptr, ptr, ptr, %struct.lv_area_t, i32, i16, i16 }
%struct.lv_area_t = type { i32, i32, i32, i32 }
%struct.anon = type { i32, i32, %struct.lv_area_t, i32, i8 }

; Function Attrs: nounwind uwtable
define void @lv_spinbox_set_value(ptr noundef %0, i32 noundef %1) #0 {
  %3 = alloca ptr, align 8
  %4 = alloca i32, align 4
  %5 = alloca ptr, align 8
  store ptr %0, ptr %3, align 8, !tbaa !3
  store i32 %1, ptr %4, align 4, !tbaa !18
  br label %6

6:                                                ; preds = %2
  br label %7

7:                                                ; preds = %6
  call void @llvm.lifetime.start.p0(i64 8, ptr %5) #4
  %8 = load ptr, ptr %3, align 8, !tbaa !3
  store ptr %8, ptr %5, align 8, !tbaa !3
  %9 = load i32, ptr %4, align 4, !tbaa !18
  %10 = load ptr, ptr %5, align 8, !tbaa !3
  %11 = getelementptr inbounds nuw %struct._lv_spinbox_t, ptr %10, i32 0, i32 2
  %12 = load i32, ptr %11, align 4, !tbaa !16
  %13 = icmp sgt i32 %9, %12
  br i1 %13, label %14, label %18

14:                                               ; preds = %7
  %15 = load ptr, ptr %5, align 8, !tbaa !3
  %16 = getelementptr inbounds nuw %struct._lv_spinbox_t, ptr %15, i32 0, i32 2
  %17 = load i32, ptr %16, align 4, !tbaa !16
  store i32 %17, ptr %4, align 4, !tbaa !18
  br label %18

18:                                               ; preds = %14, %7
  %19 = load i32, ptr %4, align 4, !tbaa !18
  %20 = load ptr, ptr %5, align 8, !tbaa !3
  %21 = getelementptr inbounds nuw %struct._lv_spinbox_t, ptr %20, i32 0, i32 3
  %22 = load i32, ptr %21, align 8, !tbaa !17
  %23 = icmp slt i32 %19, %22
  br i1 %23, label %24, label %28

24:                                               ; preds = %18
  %25 = load ptr, ptr %5, align 8, !tbaa !3
  %26 = getelementptr inbounds nuw %struct._lv_spinbox_t, ptr %25, i32 0, i32 3
  %27 = load i32, ptr %26, align 8, !tbaa !17
  store i32 %27, ptr %4, align 4, !tbaa !18
  br label %28

28:                                               ; preds = %24, %18
  %29 = load i32, ptr %4, align 4, !tbaa !18
  %30 = load ptr, ptr %5, align 8, !tbaa !3
  %31 = getelementptr inbounds nuw %struct._lv_spinbox_t, ptr %30, i32 0, i32 1
  store i32 %29, ptr %31, align 8, !tbaa !7
  %32 = load ptr, ptr %3, align 8, !tbaa !3
  call void @lv_spinbox_updatevalue(ptr noundef %32)
  call void @llvm.lifetime.end.p0(i64 8, ptr %5) #4
  ret void
}