; Function Attrs: nounwind uwtable
define void @lv_spinbox_set_value(ptr noundef %0, i32 noundef %1) local_unnamed_addr #0 {
  %3 = getelementptr inbounds nuw i8, ptr %0, i64 164
  %4 = load i32, ptr %3, align 4, !tbaa !15
  %spec.select = tail call i32 @llvm.smin.i32(i32 %1, i32 %4)
  %5 = getelementptr inbounds nuw i8, ptr %0, i64 168
  %6 = load i32, ptr %5, align 8, !tbaa !16
  %.1 = tail call i32 @llvm.smax.i32(i32 %spec.select, i32 %6)
  %7 = getelementptr inbounds nuw i8, ptr %0, i64 160
  store i32 %.1, ptr %7, align 8, !tbaa !3
  tail call fastcc void @lv_spinbox_updatevalue(ptr noundef %0)
  ret void
}